target datalayout = "e-m:e-p270:32:32-p271:32:32-p272:64:64-i64:64-i128:128-f80:128-n8:16:32:64-S128"
target triple = "x86_64-pc-linux-gnu"

@.str.1 = private unnamed_addr constant [1 x i8] zeroinitializer, align 1
@last_global_error_str = internal global ptr null, align 8
@.str.31 = private unnamed_addr constant [3 x i8] c"%s\00", align 1

; Function Attrs: nounwind uwtable
define internal void @register_error_str(ptr noundef %0, ptr noundef %1) #0 {
  %3 = alloca ptr, align 8
  %4 = alloca ptr, align 8
  store ptr %0, ptr %3, align 8
  store ptr %1, ptr %4, align 8
  %5 = load ptr, ptr %3, align 8
  %6 = load ptr, ptr %5, align 8
  call void @free(ptr noundef %6) #10
  %7 = load ptr, ptr %4, align 8
  %8 = icmp ne ptr %7, null
  br i1 %8, label %9, label %12

9:                                                ; preds = %2
  %10 = load ptr, ptr %4, align 8
  %11 = call zeroext i1 (ptr, ...) @SDL_SetError_REAL(ptr noundef @.str.31, ptr noundef %10)
  br label %14

12:                                               ; preds = %2
  %13 = call zeroext i1 @SDL_ClearError_REAL()
  br label %14

14:                                               ; preds = %12, %9
  ret void
}

; Function Attrs: nounwind uwtable
define internal void @register_global_error(ptr noundef %0) #0 {
  %2 = alloca ptr, align 8
  store ptr %0, ptr %2, align 8
  %3 = load ptr, ptr %2, align 8
  call void @register_error_str(ptr noundef @last_global_error_str, ptr noundef %3)
  ret void
}

; Function Attrs: nounwind uwtable
define hidden i32 @PLATFORM_hid_init() #0 {
  %1 = alloca ptr, align 8
  call void @llvm.lifetime.start.p0(i64 8, ptr %1) #10
  call void @register_global_error(ptr noundef null)
  %2 = call ptr @setlocale(i32 noundef 0, ptr noundef null) #10
  store ptr %2, ptr %1, align 8
  %3 = load ptr, ptr %1, align 8
  %4 = icmp ne ptr %3, null
  br i1 %4, label %7, label %5

5:                                                ; preds = %0
  %6 = call ptr @setlocale(i32 noundef 0, ptr noundef @.str.1) #10
  br label %7

7:                                                ; preds = %5, %0
  call void @llvm.lifetime.end.p0(i64 8, ptr %1) #10
  ret i32 0
}