; Function Attrs: nounwind uwtable
define hidden noundef i32 @PLATFORM_hid_init() local_unnamed_addr #1 {
  %1 = tail call zeroext i1 @SDL_ClearError_REAL() #22
  %2 = tail call ptr @setlocale(i32 noundef 0, ptr noundef null) #22
  %.not = icmp eq ptr %2, null
  br i1 %.not, label %3, label %5

3:                                                ; preds = %0
  %4 = tail call ptr @setlocale(i32 noundef 0, ptr noundef nonnull @.str.1) #22
  br label %5

5:                                                ; preds = %3, %0
  ret i32 0
}